; Function Attrs: cold mustprogress nofree noreturn nounwind uwtable
define void @_ZN6google15NullStreamFatalD2Ev(ptr noundef nonnull writeonly align 8 captures(none) dereferenceable(91) initializes((0, 8)) %0, ptr noundef readonly captures(none) %1) unnamed_addr #28 align 2 {
  %3 = load ptr, ptr %1, align 8
  store ptr %3, ptr %0, align 8, !tbaa !3
  %4 = getelementptr inbounds nuw i8, ptr %1, i64 56
  %5 = load ptr, ptr %4, align 8
  %6 = getelementptr i8, ptr %3, i64 -24
  %7 = load i64, ptr %6, align 8
  %8 = getelementptr inbounds i8, ptr %0, i64 %7
  store ptr %5, ptr %8, align 8, !tbaa !3
  tail call void @abort() #50
  unreachable
}